(lp0
F-22.886120080947876
aF-23.087712049484253
aF-22.925167083740234
aF-23.671937942504883
aF-24.437400102615356
aF-21.7166850566864
aF-46.45021605491638
aF-30.531853199005127
aF-24.757120847702026
aF-21.10627794265747
aF-17.37067198753357
aF-17.6180260181427
aF-16.49737310409546
aF-18.153976917266846
aF-19.00004291534424
aF-17.991436004638672
aF-18.067280054092407
aF-18.991724014282227
aF-17.997465133666992
aF-18.59836196899414
aF-18.259462118148804
aF-18.201743841171265
aF-18.154708862304688
aF-17.982120037078857
aF-17.872878074645996
aF-18.105025053024292
aF-18.38707208633423
aF-19.33299493789673
aF-17.88466501235962
aF-17.03666400909424
aF-17.601131916046143
aF-16.58321714401245
aF-16.072202920913696
aF-15.107342004776001
aF-15.40533709526062
aF-15.483307123184204
aF-14.793116092681885
aF-15.852004051208496
aF-15.343317985534668
aF-15.835145950317383
aF-16.66015100479126
aF-17.375633001327515
aF-18.96488904953003
aF-18.142282962799072
aF-21.30697512626648
aF-20.553766012191772
aF-22.32110905647278
aF-19.415174961090088
aF-18.321096181869507
aF-15.237133026123047
aF-15.200517892837524
aF-18.20748996734619
aF-16.5069739818573
aF-18.522804975509644
aF-20.279847145080566
aF-23.024523973464966
aF-24.579121112823486
aF-21.39315700531006
aF-20.539552927017212
aF-20.726873874664307
aF-17.341315984725952
aF-17.584889888763428
aF-17.531918048858643
aF-17.117895126342773
aF-17.238847017288208
aF-17.50105619430542
aF-18.257637977600098
aF-17.772037029266357
aF-19.27743697166443
aF-20.13338613510132
aF-19.136954069137573
aF-22.59595513343811
aF-22.374921798706055
aF-21.64809799194336
aF-19.879262924194336
aF-20.377408027648926
aF-19.54265022277832
aF-20.983584880828857
aF-19.930236101150513
aF-20.650089979171753
aF-20.365807056427002
aF-20.946619987487793
aF-20.276150941848755
aF-20.583221912384033
aF-20.0155508518219
aF-20.780386209487915
aF-19.735502004623413
aF-20.277078866958618
aF-19.63161587715149
aF-20.819066047668457
aF-19.805044174194336
aF-24.323930025100708
aF-25.982609033584595
aF-27.098257064819336
aF-26.2913179397583
aF-24.235273122787476
aF-25.356101989746094
aF-23.977275133132935
aF-22.866204977035522
aF-23.30590009689331
a.